target datalayout = "e-m:e-p270:32:32-p271:32:32-p272:64:64-i64:64-i128:128-f80:128-n8:16:32:64-S128"
target triple = "x86_64-pc-linux-gnu"

@.str.5 = private unnamed_addr constant [3 x i8] c"rb\00", align 1

; Function Attrs: nounwind uwtable
define hidden zeroext i1 @SDL_LoadWAV_REAL(ptr noundef %0, ptr noundef %1, ptr noundef %2, ptr noundef %3) #0 {
  %5 = alloca i1, align 1
  %6 = alloca ptr, align 8
  %7 = alloca ptr, align 8
  %8 = alloca ptr, align 8
  %9 = alloca ptr, align 8
  %10 = alloca ptr, align 8
  %11 = alloca i32, align 4
  store ptr %0, ptr %6, align 8
  store ptr %1, ptr %7, align 8
  store ptr %2, ptr %8, align 8
  store ptr %3, ptr %9, align 8
  call void @llvm.lifetime.start.p0(i64 8, ptr %10) #7
  %12 = load ptr, ptr %6, align 8
  %13 = call ptr @SDL_IOFromFile_REAL(ptr noundef %12, ptr noundef @.str.5)
  store ptr %13, ptr %10, align 8
  %14 = load ptr, ptr %10, align 8
  %15 = icmp ne ptr %14, null
  br i1 %15, label %32, label %16

16:                                               ; preds = %4
  %17 = load ptr, ptr %7, align 8
  %18 = icmp ne ptr %17, null
  br i1 %18, label %19, label %21

19:                                               ; preds = %16
  %20 = load ptr, ptr %7, align 8
  call void @llvm.memset.p0.i64(ptr align 4 %20, i8 0, i64 12, i1 false)
  br label %21

21:                                               ; preds = %19, %16
  %22 = load ptr, ptr %8, align 8
  %23 = icmp ne ptr %22, null
  br i1 %23, label %24, label %26

24:                                               ; preds = %21
  %25 = load ptr, ptr %8, align 8
  store ptr null, ptr %25, align 8
  br label %26

26:                                               ; preds = %24, %21
  %27 = load ptr, ptr %9, align 8
  %28 = icmp ne ptr %27, null
  br i1 %28, label %29, label %31

29:                                               ; preds = %26
  %30 = load ptr, ptr %9, align 8
  store i32 0, ptr %30, align 4
  br label %31

31:                                               ; preds = %29, %26
  store i1 false, ptr %5, align 1
  store i32 1, ptr %11, align 4
  br label %38

32:                                               ; preds = %4
  %33 = load ptr, ptr %10, align 8
  %34 = load ptr, ptr %7, align 8
  %35 = load ptr, ptr %8, align 8
  %36 = load ptr, ptr %9, align 8
  %37 = call zeroext i1 @SDL_LoadWAV_IO_REAL(ptr noundef %33, i1 noundef zeroext true, ptr noundef %34, ptr noundef %35, ptr noundef %36)
  store i1 %37, ptr %5, align 1
  store i32 1, ptr %11, align 4
  br label %38

38:                                               ; preds = %32, %31
  call void @llvm.lifetime.end.p0(i64 8, ptr %10) #7
  %39 = load i1, ptr %5, align 1
  ret i1 %39
}