; Function Attrs: nounwind uwtable
define hidden noundef zeroext i1 @SDL_LoadWAV_REAL(ptr noundef %0, ptr noundef writeonly captures(address_is_null) %1, ptr noundef captures(address_is_null) %2, ptr noundef writeonly captures(address_is_null) %3) local_unnamed_addr #0 {
  %5 = tail call ptr @SDL_IOFromFile_REAL(ptr noundef %0, ptr noundef nonnull @.str.5) #8
  %.not = icmp eq ptr %5, null
  br i1 %.not, label %6, label %12

6:                                                ; preds = %4
  %.not17 = icmp eq ptr %1, null
  br i1 %.not17, label %8, label %7

7:                                                ; preds = %6
  tail call void @llvm.memset.p0.i64(ptr noundef nonnull align 4 dereferenceable(12) %1, i8 0, i64 12, i1 false)
  br label %8

8:                                                ; preds = %7, %6
  %.not18 = icmp eq ptr %2, null
  br i1 %.not18, label %10, label %9

9:                                                ; preds = %8
  store ptr null, ptr %2, align 8
  br label %10

10:                                               ; preds = %9, %8
  %.not19 = icmp eq ptr %3, null
  br i1 %.not19, label %14, label %11

11:                                               ; preds = %10
  store i32 0, ptr %3, align 4
  br label %14

12:                                               ; preds = %4
  %13 = tail call zeroext i1 @SDL_LoadWAV_IO_REAL(ptr noundef nonnull %5, i1 noundef zeroext true, ptr noundef %1, ptr noundef %2, ptr noundef %3)
  br label %14

14:                                               ; preds = %10, %11, %12
  %.0 = phi i1 [ %13, %12 ], [ false, %11 ], [ false, %10 ]
  ret i1 %.0
}